(dp0
S'fsl'
p1
(lp2
S'dtifit'
p3
aS'bedpostx'
p4
aS'_default_cmd'
p5
aS'self.bedpostx_gpu'
p6
aS'self.self._default_cmd'
p7
aS'xfibres'
p8
aS'xfibres'
p9
aS'bedpostx'
p10
aS'probtrackx'
p11
aS'probtrackx2'
p12
aS'vecreg'
p13
aS'proj_thresh'
p14
aS'find_the_biggest'
p15
aS'tbss_skeleton'
p16
aS'distancemap'
p17
aS'make_dyadic_vectors'
p18
aS'fsl_prepare_fieldmap'
p19
aS'topup'
p20
aS'applytopup'
p21
aS'eddy'
p22
aS'sigloss'
p23
aS'epi_reg'
p24
aS'epidewarp.fsl'
p25
aS'eddy_correct'
p26
aS'fslmaths'
p27
aS'feat'
p28
aS'feat_model'
p29
aS'film_gls'
p30
aS'flameo'
p31
aS'contrast_mgr'
p32
aS'mm--ld=logdir'
p33
aS'melodic'
p34
aS'smoothest'
p35
aS'cluster'
p36
aS'randomise'
p37
aS'fsl_glm'
p38
aS'bet'
p39
aS'fast'
p40
aS'flirt'
p41
aS'mcflirt'
p42
aS'fnirt'
p43
aS'applywarp'
p44
aS'slicetimer'
p45
aS'susan'
p46
aS'fugue'
p47
aS'prelude'
p48
aS'run_first_all'
p49
aS'fslcpgeom'
p50
aS'robustfov'
p51
aS'fslmeants'
p52
aS'fslmaths'
p53
aS'fslmerge'
p54
aS'fslroi'
p55
aS'fslsplit'
p56
aS'fslmaths'
p57
aS'fsl_regfilt'
p58
aS'fslstats'
p59
aS'avscale'
p60
aS'overlay'
p61
aS'slicer'
p62
aS'fsl_tsplot'
p63
aS'fsl_tsplot'
p64
aS'convert_xfm'
p65
aS'fslswapdim'
p66
aS'fslpspec'
p67
aS'sigloss'
p68
aS'fslreorient2std'
p69
aS'invwarp'
p70
aS'fslcomplex'
p71
aS'fnirtfileutils'
p72
aS'convertwarp'
p73
aS'img2imgcoord'
p74
aS'img2stdcoord'
p75
as.